; Function Attrs: nounwind uwtable
define dso_local void @trace2_region_enter_fl(ptr noundef %0, i32 noundef %1, ptr noundef %2, ptr noundef %3, ptr noundef %4, ...) local_unnamed_addr #0 {
  %6 = alloca [1 x %struct.__va_list_tag], align 16
  call void @llvm.lifetime.start.p0(i64 24, ptr nonnull %6) #11
  call void @llvm.va_start.p0(ptr nonnull %6)
  %.b.i = load i1, ptr @trace2_enabled, align 4
  br i1 %.b.i, label %7, label %trace2_region_enter_printf_va_fl.exit

7:                                                ; preds = %5
  %8 = call i64 @getnanotime() #11
  %9 = udiv i64 %8, 1000
  %10 = call i64 @tr2tls_absolute_elapsed(i64 noundef %9) #11
  br label %11

11:                                               ; preds = %18, %7
  %indvars.iv.i = phi i64 [ 0, %7 ], [ %indvars.iv.next.i, %18 ]
  %.021.i = phi ptr [ @tr2_tgt_normal, %7 ], [ %20, %18 ]
  %12 = load ptr, ptr %.021.i, align 8, !tbaa !14
  %13 = call i32 @tr2_dst_trace_want(ptr noundef %12) #11
  %.not18.i = icmp eq i32 %13, 0
  br i1 %.not18.i, label %18, label %14

14:                                               ; preds = %11
  %15 = getelementptr inbounds nuw i8, ptr %.021.i, i64 184
  %16 = load ptr, ptr %15, align 8, !tbaa !70
  %.not19.i = icmp eq ptr %16, null
  br i1 %.not19.i, label %18, label %17

17:                                               ; preds = %14
  call void %16(ptr noundef %0, i32 noundef %1, i64 noundef %10, ptr noundef %2, ptr noundef %3, ptr noundef %4, ptr noundef null, ptr noundef nonnull %6) #11
  br label %18

18:                                               ; preds = %17, %14, %11
  %indvars.iv.next.i = add nuw nsw i64 %indvars.iv.i, 1
  %19 = getelementptr inbounds nuw [4 x ptr], ptr @tr2_tgt_builtins, i64 0, i64 %indvars.iv.next.i
  %20 = load ptr, ptr %19, align 8, !tbaa !10
  %.not.i = icmp eq i64 %indvars.iv.next.i, 3
  br i1 %.not.i, label %21, label %11, !llvm.loop !71

21:                                               ; preds = %18
  call void @tr2tls_push_self(i64 noundef %9) #11
  br label %trace2_region_enter_printf_va_fl.exit

trace2_region_enter_printf_va_fl.exit:            ; preds = %5, %21
  call void @llvm.va_end.p0(ptr nonnull %6)
  call void @llvm.lifetime.end.p0(i64 24, ptr nonnull %6) #11
  ret void
}